(dp0
Vhttp://arxiv.org/abs/astro-ph/9302003v1
p1
(dp2
S'comment'
p3
V28 pages, FERMILAB-Conf-92/382-A
p4
sS'updated'
p5
V1993-02-04T02:47:34Z
p6
sS'title'
p7
VDark Matter: Theoretical Perspectives
p8
sS'authors'
p9
(lp10
VM. S. Turner
p11
asS'summary'
p12
V  Talk presented at NAS Special Colloquium on Physical Cosmology\u000a
p13
sS'href'
p14
S'http://arxiv.org/pdf/astro-ph/9302003v1'
p15
sS'published'
p16
V1993-02-04T02:47:34Z
p17
sS'query'
p18
VDark Matter: Theoretical Perspectives
p19
sS'id'
p20
g1
ssVhttp://arxiv.org/abs/astro-ph/9410034v1
p21
(dp22
g3
V16pp, plain tex, CfPA 94-th-40
p23
sg5
V1994-10-12T00:26:50Z
p24
sg7
VGalactic Structure and Stellar Populations
p25
sg9
(lp26
VRosemary F. G. Wyse
p27
asg12
V  Invited review given at special session on Digitizing the Sky at 1994 Summer\u000aAAS meeting, Minnesota.\u000a
p28
sg14
S'http://arxiv.org/pdf/astro-ph/9410034v1'
p29
sg16
V1994-10-12T00:26:50Z
p30
sg18
VGalactic Structure and Stellar Populations
p31
sg20
g21
ssVhttp://arxiv.org/abs/astro-ph/9304010v1
p32
(dp33
g3
V3 pages, TeX
p34
sg5
V1993-04-10T22:53:38Z
p35
sg7
VErrata in Binney and Tremaine, "Galactic Dynamics"
p36
sg9
(lp37
VJ. Binney
p38
aVS. Tremaine
p39
asg12
V  This paper contains all known errata in the book "Galactic Dynamics".\u000a
p40
sg14
S'http://arxiv.org/pdf/astro-ph/9304010v1'
p41
sg16
V1993-04-10T22:53:38Z
p42
sg18
VErrata in Binney and Tremaine, "Galactic Dynamics"
p43
sg20
g32
ssVhttp://arxiv.org/abs/astro-ph/9403007v1
p44
(dp45
g3
V54 pages in a uuencoded postscript file, FNAL--CONF--94/058--A
p46
sg5
V1994-03-03T22:14:09Z
p47
sg7
VParticle Physics and Cosmology
p48
sg9
(lp49
VEdward W. Kolb
p50
asg12
V  Lectures presented at the 42nd Scottish Universities Summer School in\u000aPhysics, St. Andrews, Scotland, August 1993.\u000a
p51
sg14
S'http://arxiv.org/pdf/astro-ph/9403007v1'
p52
sg16
V1994-03-03T22:14:09Z
p53
sg18
VParticle Physics and Cosmology
p54
sg20
g44
ssVhttp://arxiv.org/abs/astro-ph/9309030v1
p55
(dp56
g3
VParis Conference 10 pages uuencoded postscript file- figures\u000a  available upon request
p57
sg5
V1993-09-20T08:42:00Z
p58
sg7
VSpherical Harmonic Reconstruction of Cosmic Density and Velocity Fields
p59
sg9
(lp60
VOfer Lahav
p61
asg12
V  The orthonormal set of Spherical Harmonics provides a natural way of\u000aexpanding whole sky redshift and peculiar velocity surveys.\u000a
p62
sg14
S'http://arxiv.org/pdf/astro-ph/9309030v1'
p63
sg16
V1993-09-20T08:42:00Z
p64
sg18
VSpherical Harmonic Reconstruction of Cosmic Density and Velocity Fields
p65
sg20
g55
ss.